target datalayout = "e-m:e-p270:32:32-p271:32:32-p272:64:64-i64:64-i128:128-f80:128-n8:16:32:64-S128"
target triple = "x86_64-pc-linux-gnu"

%struct.AVFilterLink = type { ptr, ptr, ptr, ptr, i32, i32, i32, i32, %struct.AVRational, i32, i32, i32, %struct.AVChannelLayout, %struct.AVRational, ptr, i32, %struct.AVFilterFormatsConfig, %struct.AVFilterFormatsConfig }
%struct.AVChannelLayout = type { i32, i32, %union.anon.1, ptr }
%union.anon.1 = type { i64 }
%struct.AVRational = type { i32, i32 }
%struct.AVFilterFormatsConfig = type { ptr, ptr, ptr, ptr, ptr }
%struct.AVFilterContext = type { ptr, ptr, ptr, ptr, ptr, i32, ptr, ptr, i32, ptr, ptr, i32, i32, ptr, ptr, ptr, ptr, i32, ptr, i32, i32 }
%struct.CASContext = type { ptr, float, i32, i32, i32, [4 x i32], [4 x i32], ptr, ptr }
%struct.AVFrame = type { [8 x ptr], [8 x i32], ptr, i32, i32, i32, i32, i32, %struct.AVRational, i64, i64, %struct.AVRational, i32, ptr, i32, i32, [8 x ptr], ptr, i32, ptr, i32, i32, i32, i32, i32, i32, i32, i64, ptr, i32, ptr, ptr, i64, i64, i64, i64, ptr, %struct.AVChannelLayout, i64 }

; Function Attrs: nounwind uwtable
define internal i32 @filter_frame(ptr noundef %0, ptr noundef %1) #1 {
  %3 = alloca i32, align 4
  %4 = alloca ptr, align 8
  %5 = alloca ptr, align 8
  %6 = alloca ptr, align 8
  %7 = alloca ptr, align 8
  %8 = alloca ptr, align 8
  %9 = alloca ptr, align 8
  %10 = alloca i32, align 4
  store ptr %0, ptr %4, align 8, !tbaa !4
  store ptr %1, ptr %5, align 8, !tbaa !9
  call void @llvm.lifetime.start.p0(i64 8, ptr %6) #9
  %11 = load ptr, ptr %4, align 8, !tbaa !4
  %12 = getelementptr inbounds nuw %struct.AVFilterLink, ptr %11, i32 0, i32 2
  %13 = load ptr, ptr %12, align 8, !tbaa !11
  store ptr %13, ptr %6, align 8, !tbaa !23
  call void @llvm.lifetime.start.p0(i64 8, ptr %7) #9
  %14 = load ptr, ptr %6, align 8, !tbaa !23
  %15 = getelementptr inbounds nuw %struct.AVFilterContext, ptr %14, i32 0, i32 7
  %16 = load ptr, ptr %15, align 8, !tbaa !24
  %17 = getelementptr inbounds ptr, ptr %16, i64 0
  %18 = load ptr, ptr %17, align 8, !tbaa !4
  store ptr %18, ptr %7, align 8, !tbaa !4
  call void @llvm.lifetime.start.p0(i64 8, ptr %8) #9
  %19 = load ptr, ptr %6, align 8, !tbaa !23
  %20 = getelementptr inbounds nuw %struct.AVFilterContext, ptr %19, i32 0, i32 9
  %21 = load ptr, ptr %20, align 8, !tbaa !34
  store ptr %21, ptr %8, align 8, !tbaa !35
  call void @llvm.lifetime.start.p0(i64 8, ptr %9) #9
  %22 = load ptr, ptr %7, align 8, !tbaa !4
  %23 = load ptr, ptr %7, align 8, !tbaa !4
  %24 = getelementptr inbounds nuw %struct.AVFilterLink, ptr %23, i32 0, i32 6
  %25 = load i32, ptr %24, align 8, !tbaa !37
  %26 = load ptr, ptr %7, align 8, !tbaa !4
  %27 = getelementptr inbounds nuw %struct.AVFilterLink, ptr %26, i32 0, i32 7
  %28 = load i32, ptr %27, align 4, !tbaa !38
  %29 = call ptr @ff_get_video_buffer(ptr noundef %22, i32 noundef %25, i32 noundef %28)
  store ptr %29, ptr %9, align 8, !tbaa !9
  %30 = load ptr, ptr %9, align 8, !tbaa !9
  %31 = icmp ne ptr %30, null
  br i1 %31, label %33, label %32

32:                                               ; preds = %2
  call void @av_frame_free(ptr noundef %5)
  store i32 -12, ptr %3, align 4
  store i32 1, ptr %10, align 4
  br label %70

33:                                               ; preds = %2
  %34 = load ptr, ptr %9, align 8, !tbaa !9
  %35 = load ptr, ptr %5, align 8, !tbaa !9
  %36 = call i32 @av_frame_copy_props(ptr noundef %34, ptr noundef %35)
  %37 = load ptr, ptr %5, align 8, !tbaa !9
  %38 = load ptr, ptr %8, align 8, !tbaa !35
  %39 = getelementptr inbounds nuw %struct.CASContext, ptr %38, i32 0, i32 7
  store ptr %37, ptr %39, align 8, !tbaa !39
  %40 = load ptr, ptr %6, align 8, !tbaa !23
  %41 = load ptr, ptr %8, align 8, !tbaa !35
  %42 = getelementptr inbounds nuw %struct.CASContext, ptr %41, i32 0, i32 8
  %43 = load ptr, ptr %42, align 8, !tbaa !42
  %44 = load ptr, ptr %9, align 8, !tbaa !9
  %45 = load ptr, ptr %5, align 8, !tbaa !9
  %46 = getelementptr inbounds nuw %struct.AVFrame, ptr %45, i32 0, i32 4
  %47 = load i32, ptr %46, align 4, !tbaa !43
  %48 = load ptr, ptr %6, align 8, !tbaa !23
  %49 = call i32 @ff_filter_get_nb_threads(ptr noundef %48) #10
  %50 = icmp sgt i32 %47, %49
  br i1 %50, label %51, label %54

51:                                               ; preds = %33
  %52 = load ptr, ptr %6, align 8, !tbaa !23
  %53 = call i32 @ff_filter_get_nb_threads(ptr noundef %52) #10
  br label %58

54:                                               ; preds = %33
  %55 = load ptr, ptr %5, align 8, !tbaa !9
  %56 = getelementptr inbounds nuw %struct.AVFrame, ptr %55, i32 0, i32 4
  %57 = load i32, ptr %56, align 4, !tbaa !43
  br label %58

58:                                               ; preds = %54, %51
  %59 = phi i32 [ %53, %51 ], [ %57, %54 ]
  %60 = call i32 @ff_filter_execute(ptr noundef %40, ptr noundef %43, ptr noundef %44, ptr noundef null, i32 noundef %59)
  call void @av_frame_free(ptr noundef %5)
  %61 = load ptr, ptr %8, align 8, !tbaa !35
  %62 = getelementptr inbounds nuw %struct.CASContext, ptr %61, i32 0, i32 7
  store ptr null, ptr %62, align 8, !tbaa !39
  %63 = load ptr, ptr %6, align 8, !tbaa !23
  %64 = getelementptr inbounds nuw %struct.AVFilterContext, ptr %63, i32 0, i32 7
  %65 = load ptr, ptr %64, align 8, !tbaa !24
  %66 = getelementptr inbounds ptr, ptr %65, i64 0
  %67 = load ptr, ptr %66, align 8, !tbaa !4
  %68 = load ptr, ptr %9, align 8, !tbaa !9
  %69 = call i32 @ff_filter_frame(ptr noundef %67, ptr noundef %68)
  store i32 %69, ptr %3, align 4
  store i32 1, ptr %10, align 4
  br label %70

70:                                               ; preds = %58, %32
  call void @llvm.lifetime.end.p0(i64 8, ptr %9) #9
  call void @llvm.lifetime.end.p0(i64 8, ptr %8) #9
  call void @llvm.lifetime.end.p0(i64 8, ptr %7) #9
  call void @llvm.lifetime.end.p0(i64 8, ptr %6) #9
  %71 = load i32, ptr %3, align 4
  ret i32 %71
}