; Function Attrs: nounwind uwtable
define internal i32 @filter_frame(ptr noundef readonly captures(none) %0, ptr noundef %1) #1 {
  %3 = alloca ptr, align 8
  store ptr %1, ptr %3, align 8, !tbaa !4
  %4 = getelementptr inbounds nuw i8, ptr %0, i64 16
  %5 = load ptr, ptr %4, align 8, !tbaa !9
  %6 = getelementptr inbounds nuw i8, ptr %5, i64 56
  %7 = load ptr, ptr %6, align 8, !tbaa !21
  %8 = load ptr, ptr %7, align 8, !tbaa !31
  %9 = getelementptr inbounds nuw i8, ptr %5, i64 72
  %10 = load ptr, ptr %9, align 8, !tbaa !33
  %11 = getelementptr inbounds nuw i8, ptr %8, i64 40
  %12 = load i32, ptr %11, align 8, !tbaa !34
  %13 = getelementptr inbounds nuw i8, ptr %8, i64 44
  %14 = load i32, ptr %13, align 4, !tbaa !35
  %15 = tail call ptr @ff_get_video_buffer(ptr noundef %8, i32 noundef %12, i32 noundef %14) #6
  %.not = icmp eq ptr %15, null
  br i1 %.not, label %16, label %17

16:                                               ; preds = %2
  call void @av_frame_free(ptr noundef nonnull %3) #6
  br label %29

17:                                               ; preds = %2
  %18 = tail call i32 @av_frame_copy_props(ptr noundef nonnull %15, ptr noundef %1) #6
  %19 = getelementptr inbounds nuw i8, ptr %10, i64 56
  store ptr %1, ptr %19, align 8, !tbaa !36
  %20 = getelementptr inbounds nuw i8, ptr %10, i64 64
  %21 = load ptr, ptr %20, align 8, !tbaa !39
  %22 = getelementptr inbounds nuw i8, ptr %1, i64 108
  %23 = load i32, ptr %22, align 4, !tbaa !40
  %24 = tail call i32 @ff_filter_get_nb_threads(ptr noundef nonnull %5) #7
  %. = tail call i32 @llvm.smin.i32(i32 %23, i32 %24)
  %25 = tail call i32 @ff_filter_execute(ptr noundef nonnull %5, ptr noundef %21, ptr noundef nonnull %15, ptr noundef null, i32 noundef %.) #6
  call void @av_frame_free(ptr noundef nonnull %3) #6
  store ptr null, ptr %19, align 8, !tbaa !36
  %26 = load ptr, ptr %6, align 8, !tbaa !21
  %27 = load ptr, ptr %26, align 8, !tbaa !31
  %28 = call i32 @ff_filter_frame(ptr noundef %27, ptr noundef nonnull %15) #6
  br label %29

29:                                               ; preds = %17, %16
  %.0 = phi i32 [ %28, %17 ], [ -12, %16 ]
  ret i32 %.0
}